; Function Attrs: mustprogress uwtable
define noundef ptr @_ZNK6google8protobuf10BytesValue18_InternalSerializeEPhPNS0_2io19EpsCopyOutputStreamE(ptr nocapture noundef nonnull readonly align 8 dereferenceable(32) %this, ptr noundef %target, ptr noundef %stream) unnamed_addr #3 align 2 {
entry:
  %0 = getelementptr inbounds i8, ptr %this, i64 16
  %1 = load ptr, ptr %0, align 8
  %2 = ptrtoint ptr %1 to i64
  %and.i.i = and i64 %2, -4
  %3 = inttoptr i64 %and.i.i to ptr
  %call2 = tail call noundef zeroext i1 @_ZNKSt7__cxx1112basic_stringIcSt11char_traitsIcESaIcEE5emptyEv(ptr noundef nonnull align 8 dereferenceable(32) %3) #15
  br i1 %call2, label %if.end, label %if.then

if.then:                                          ; preds = %entry
  %4 = load ptr, ptr %0, align 8
  %5 = ptrtoint ptr %4 to i64
  %and.i.i4 = and i64 %5, -4
  %6 = inttoptr i64 %and.i.i4 to ptr
  %call.i.i = tail call noundef i64 @_ZNKSt7__cxx1112basic_stringIcSt11char_traitsIcESaIcEE4sizeEv(ptr noundef nonnull align 8 dereferenceable(32) %6) #15
  %cmp.i.i = icmp sgt i64 %call.i.i, 127
  br i1 %cmp.i.i, label %if.then.i.i, label %lor.rhs.i.i

lor.rhs.i.i:                                      ; preds = %if.then
  %7 = load ptr, ptr %stream, align 8
  %sub.ptr.lhs.cast.i.i = ptrtoint ptr %7 to i64
  %sub.ptr.rhs.cast.i.i = ptrtoint ptr %target to i64
  %reass.sub = sub i64 %sub.ptr.lhs.cast.i.i, %sub.ptr.rhs.cast.i.i
  %sub3.i.i = add i64 %reass.sub, 14
  %cmp4.i.i = icmp slt i64 %sub3.i.i, %call.i.i
  br i1 %cmp4.i.i, label %if.then.i.i, label %if.end.i.i

if.then.i.i:                                      ; preds = %lor.rhs.i.i, %if.then
  %call6.i.i = tail call noundef ptr @_ZN6google8protobuf2io19EpsCopyOutputStream30WriteStringMaybeAliasedOutlineEjRKNSt7__cxx1112basic_stringIcSt11char_traitsIcESaIcEEEPh(ptr noundef nonnull align 8 dereferenceable(60) %stream, i32 noundef 1, ptr noundef nonnull align 8 dereferenceable(32) %6, ptr noundef %target)
  br label %if.end

if.end.i.i:                                       ; preds = %lor.rhs.i.i
  %incdec.ptr2.i.i.i = getelementptr inbounds i8, ptr %target, i64 1
  store i8 10, ptr %target, align 1
  %conv9.i.i = trunc i64 %call.i.i to i8
  %incdec.ptr.i.i = getelementptr inbounds i8, ptr %target, i64 2
  store i8 %conv9.i.i, ptr %incdec.ptr2.i.i.i, align 1
  %call10.i.i = tail call noundef ptr @_ZNKSt7__cxx1112basic_stringIcSt11char_traitsIcESaIcEE4dataEv(ptr noundef nonnull align 8 dereferenceable(32) %6) #15
  tail call void @llvm.memcpy.p0.p0.i64(ptr nonnull align 1 %incdec.ptr.i.i, ptr align 1 %call10.i.i, i64 %call.i.i, i1 false)
  %add.ptr.i.i = getelementptr inbounds i8, ptr %incdec.ptr.i.i, i64 %call.i.i
  br label %if.end

if.end:                                           ; preds = %if.end.i.i, %if.then.i.i, %entry
  %target.addr.0 = phi ptr [ %target, %entry ], [ %call6.i.i, %if.then.i.i ], [ %add.ptr.i.i, %if.end.i.i ]
  %_internal_metadata_ = getelementptr inbounds i8, ptr %this, i64 8
  %8 = load i64, ptr %_internal_metadata_, align 8
  %and.i17 = and i64 %8, 1
  %tobool.i18.not = icmp eq i64 %and.i17, 0
  br i1 %tobool.i18.not, label %if.end10, label %if.then.i

if.then.i:                                        ; preds = %if.end
  %and.i = and i64 %8, -2
  %9 = inttoptr i64 %and.i to ptr
  %unknown_fields.i = getelementptr inbounds i8, ptr %9, i64 8
  %call9 = tail call noundef ptr @_ZN6google8protobuf8internal10WireFormat37InternalSerializeUnknownFieldsToArrayERKNS0_15UnknownFieldSetEPhPNS0_2io19EpsCopyOutputStreamE(ptr noundef nonnull align 8 dereferenceable(24) %unknown_fields.i, ptr noundef %target.addr.0, ptr noundef %stream)
  br label %if.end10

if.end10:                                         ; preds = %if.then.i, %if.end
  %target.addr.1 = phi ptr [ %call9, %if.then.i ], [ %target.addr.0, %if.end ]
  ret ptr %target.addr.1
}